; Function Attrs: nofree norecurse nosync nounwind memory(argmem: read) uwtable
define range(i32 0, 2) i32 @Pdr_SetIsInit(ptr noundef readonly captures(none) %0, i32 noundef %1) local_unnamed_addr #11 {
  %3 = getelementptr inbounds nuw i8, ptr %0, i64 20
  %4 = getelementptr inbounds nuw i8, ptr %0, i64 16
  %5 = load i32, ptr %4, align 8
  %6 = icmp sgt i32 %5, 0
  br i1 %6, label %.lr.ph.preheader, label %._crit_edge

.lr.ph.preheader:                                 ; preds = %2
  %7 = zext i32 %1 to i64
  %wide.trip.count = zext nneg i32 %5 to i64
  br label %.lr.ph

.lr.ph:                                           ; preds = %.lr.ph.preheader, %14
  %indvars.iv = phi i64 [ 0, %.lr.ph.preheader ], [ %indvars.iv.next, %14 ]
  %8 = icmp eq i64 %indvars.iv, %7
  br i1 %8, label %14, label %9

9:                                                ; preds = %.lr.ph
  %10 = getelementptr inbounds nuw [0 x i32], ptr %3, i64 0, i64 %indvars.iv
  %11 = load i32, ptr %10, align 4
  %12 = and i32 %11, 1
  %13 = icmp eq i32 %12, 0
  br i1 %13, label %._crit_edge, label %14

14:                                               ; preds = %9, %.lr.ph
  %indvars.iv.next = add nuw nsw i64 %indvars.iv, 1
  %exitcond.not = icmp eq i64 %indvars.iv.next, %wide.trip.count
  br i1 %exitcond.not, label %._crit_edge, label %.lr.ph, !llvm.loop !20

._crit_edge:                                      ; preds = %9, %14, %2
  %.07 = phi i32 [ 1, %2 ], [ 1, %14 ], [ 0, %9 ]
  ret i32 %.07
}